; Function Attrs: nounwind sspstrong uwtable
define internal noundef i64 @rb_hash_except(i32 noundef %0, ptr noundef readonly captures(none) %1, i64 noundef %2) #0 {
  %4 = alloca i64, align 8
  %5 = alloca i64, align 8
  %6 = load i64, ptr @rb_cHash, align 8, !tbaa !7
  %7 = inttoptr i64 %2 to ptr
  %8 = load i64, ptr %7, align 8, !tbaa !11
  %9 = and i64 %8, 32768
  %.not.i.i.not.i = icmp eq i64 %9, 0
  %10 = select i1 %.not.i.i.not.i, i64 160, i64 80
  %11 = tail call align 8 ptr @llvm.threadlocal.address.p0(ptr align 8 @ruby_current_ec)
  %12 = load ptr, ptr %11, align 8, !tbaa !24
  %13 = tail call i64 @rb_wb_protected_newobj_of(ptr noundef %12, i64 noundef %6, i64 noundef 8, i64 noundef %10) #28
  %14 = inttoptr i64 %13 to ptr
  %15 = getelementptr inbounds nuw i8, ptr %14, i64 16
  store i64 4, ptr %15, align 8, !tbaa !7
  %16 = load i64, ptr %7, align 8, !tbaa !11
  %17 = and i64 %16, 32768
  %18 = load i64, ptr %14, align 8, !tbaa !11
  %19 = and i64 %18, -32769
  %storemerge.i = or disjoint i64 %19, %17
  store i64 %storemerge.i, ptr %14, align 8, !tbaa !11
  %20 = tail call fastcc i64 @hash_copy(i64 noundef %13, i64 noundef %2)
  %21 = icmp sgt i32 %0, 0
  br i1 %21, label %.lr.ph.preheader, label %._crit_edge

.lr.ph.preheader:                                 ; preds = %3
  %wide.trip.count = zext nneg i32 %0 to i64
  br label %.lr.ph

.lr.ph:                                           ; preds = %.lr.ph.preheader, %.lr.ph
  %indvars.iv = phi i64 [ 0, %.lr.ph.preheader ], [ %indvars.iv.next, %.lr.ph ]
  %22 = getelementptr i64, ptr %1, i64 %indvars.iv
  %23 = load i64, ptr %22, align 8, !tbaa !7
  call void @llvm.lifetime.start.p0(i64 8, ptr nonnull %4) #28
  store i64 %23, ptr %4, align 8, !tbaa !7
  call void @llvm.lifetime.start.p0(i64 8, ptr nonnull %5) #28
  %24 = call i32 @rb_hash_stlike_delete(i64 noundef %13, ptr noundef nonnull %4, ptr noundef nonnull %5)
  call void @llvm.lifetime.end.p0(i64 8, ptr nonnull %5) #28
  call void @llvm.lifetime.end.p0(i64 8, ptr nonnull %4) #28
  %indvars.iv.next = add nuw nsw i64 %indvars.iv, 1
  %exitcond.not = icmp eq i64 %indvars.iv.next, %wide.trip.count
  br i1 %exitcond.not, label %._crit_edge, label %.lr.ph, !llvm.loop !112

._crit_edge:                                      ; preds = %.lr.ph, %3
  %25 = load i64, ptr %14, align 8, !tbaa !11
  %26 = and i64 %25, 4261445632
  %or.cond.i = icmp eq i64 %26, 32768
  br i1 %or.cond.i, label %27, label %compact_after_delete.exit

27:                                               ; preds = %._crit_edge
  %28 = add i64 %13, 24
  %29 = inttoptr i64 %28 to ptr
  call void @rb_st_compact_table(ptr noundef nonnull %29) #28
  br label %compact_after_delete.exit

compact_after_delete.exit:                        ; preds = %._crit_edge, %27
  ret i64 %13
}